target datalayout = "e-m:e-p270:32:32-p271:32:32-p272:64:64-i64:64-i128:128-f80:128-n8:16:32:64-S128"
target triple = "x86_64-pc-linux-gnu"

%class.anon.733 = type { i8 }

@.str.493 = private unnamed_addr constant [6 x i8] c"int64\00", align 1

; Function Attrs: mustprogress uwtable
define internal void @_ZL9pushInt64P9lua_Statel(ptr noundef %0, i64 noundef %1) #4 {
  %3 = alloca ptr, align 8
  %4 = alloca i64, align 8
  %5 = alloca ptr, align 8
  store ptr %0, ptr %3, align 8
  store i64 %1, ptr %4, align 8
  %6 = load ptr, ptr %3, align 8
  %7 = call noundef ptr @_Z21lua_newuserdatataggedP9lua_Statemi(ptr noundef %6, i64 noundef 8, i32 noundef 1)
  store ptr %7, ptr %5, align 8
  %8 = load ptr, ptr %3, align 8
  %9 = call noundef i32 @_Z12lua_getfieldP9lua_StateiPKc(ptr noundef %8, i32 noundef -10000, ptr noundef @.str.493)
  %10 = load ptr, ptr %3, align 8
  %11 = call noundef i32 @_Z16lua_setmetatableP9lua_Statei(ptr noundef %10, i32 noundef -2)
  %12 = load i64, ptr %4, align 8
  %13 = load ptr, ptr %5, align 8
  store i64 %12, ptr %13, align 8
  ret void
}

; Function Attrs: mustprogress uwtable
define internal noundef i32 @"_ZZZL21DOCTEST_ANON_FUNC_128vENK3$_0clEP9lua_StateENKUlS1_E13_clES1_"(ptr noundef nonnull align 1 dereferenceable(1) %0, ptr noundef %1) #4 align 2 {
  %3 = alloca ptr, align 8
  %4 = alloca ptr, align 8
  %5 = alloca double, align 8
  store ptr %0, ptr %3, align 8
  store ptr %1, ptr %4, align 8
  %6 = load ptr, ptr %4, align 8
  %7 = call noundef double @_Z16luaL_checknumberP9lua_Statei(ptr noundef %6, i32 noundef 1)
  store double %7, ptr %5, align 8
  %8 = load ptr, ptr %4, align 8
  %9 = load double, ptr %5, align 8
  %10 = fptosi double %9 to i64
  call void @_ZL9pushInt64P9lua_Statel(ptr noundef %8, i64 noundef %10)
  ret i32 1
}

; Function Attrs: mustprogress uwtable
define internal noundef i32 @"_ZZZL21DOCTEST_ANON_FUNC_128vENK3$_0clEP9lua_StateENUlS1_E13_8__invokeES1_"(ptr noundef %0) #4 align 2 {
  %2 = alloca ptr, align 8
  %3 = alloca %class.anon.733, align 1
  store ptr %0, ptr %2, align 8
  %4 = load ptr, ptr %2, align 8
  %5 = call noundef i32 @"_ZZZL21DOCTEST_ANON_FUNC_128vENK3$_0clEP9lua_StateENKUlS1_E13_clES1_"(ptr noundef nonnull align 1 dereferenceable(1) %3, ptr noundef %4)
  ret i32 %5
}