; Function Attrs: mustprogress uwtable
define internal noundef i32 @"_ZZZL21DOCTEST_ANON_FUNC_128vENK3$_0clEP9lua_StateENUlS1_E13_8__invokeES1_"(ptr noundef %0) #4 align 2 {
  %2 = tail call noundef double @_Z16luaL_checknumberP9lua_Statei(ptr noundef %0, i32 noundef 1)
  %3 = fptosi double %2 to i64
  %4 = tail call noundef ptr @_Z21lua_newuserdatataggedP9lua_Statemi(ptr noundef %0, i64 noundef 8, i32 noundef 1)
  %5 = tail call noundef i32 @_Z12lua_getfieldP9lua_StateiPKc(ptr noundef %0, i32 noundef -10000, ptr noundef nonnull @.str.493)
  %6 = tail call noundef i32 @_Z16lua_setmetatableP9lua_Statei(ptr noundef %0, i32 noundef -2)
  store i64 %3, ptr %4, align 8
  ret i32 1
}